target datalayout = "e-m:e-p270:32:32-p271:32:32-p272:64:64-i64:64-i128:128-f80:128-n8:16:32:64-S128"
target triple = "x86_64-pc-linux-gnu"

; Function Attrs: inlinehint nounwind uwtable
define internal ptr @DatumGetPointer(i64 noundef %0) #2 {
  %2 = alloca i64, align 8
  store i64 %0, ptr %2, align 8
  %3 = load i64, ptr %2, align 8
  %4 = inttoptr i64 %3 to ptr
  ret ptr %4
}

; Function Attrs: nounwind uwtable
define dso_local zeroext i1 @datumIsEqual(i64 noundef %0, i64 noundef %1, i1 noundef zeroext %2, i32 noundef %3) #0 {
  %5 = alloca i1, align 1
  %6 = alloca i64, align 8
  %7 = alloca i64, align 8
  %8 = alloca i8, align 1
  %9 = alloca i32, align 4
  %10 = alloca i8, align 1
  %11 = alloca i64, align 8
  %12 = alloca i64, align 8
  %13 = alloca ptr, align 8
  %14 = alloca ptr, align 8
  %15 = alloca i32, align 4
  store i64 %0, ptr %6, align 8
  store i64 %1, ptr %7, align 8
  %16 = zext i1 %2 to i8
  store i8 %16, ptr %8, align 1
  store i32 %3, ptr %9, align 4
  call void @llvm.lifetime.start.p0(i64 1, ptr %10) #7
  %17 = load i8, ptr %8, align 1, !range !4, !noundef !5
  %18 = trunc i8 %17 to i1
  br i1 %18, label %19, label %24

19:                                               ; preds = %4
  %20 = load i64, ptr %6, align 8
  %21 = load i64, ptr %7, align 8
  %22 = icmp eq i64 %20, %21
  %23 = zext i1 %22 to i8
  store i8 %23, ptr %10, align 1
  br label %53

24:                                               ; preds = %4
  call void @llvm.lifetime.start.p0(i64 8, ptr %11) #7
  call void @llvm.lifetime.start.p0(i64 8, ptr %12) #7
  call void @llvm.lifetime.start.p0(i64 8, ptr %13) #7
  call void @llvm.lifetime.start.p0(i64 8, ptr %14) #7
  %25 = load i64, ptr %6, align 8
  %26 = load i8, ptr %8, align 1, !range !4, !noundef !5
  %27 = trunc i8 %26 to i1
  %28 = load i32, ptr %9, align 4
  %29 = call i64 @datumGetSize(i64 noundef %25, i1 noundef zeroext %27, i32 noundef %28)
  store i64 %29, ptr %11, align 8
  %30 = load i64, ptr %7, align 8
  %31 = load i8, ptr %8, align 1, !range !4, !noundef !5
  %32 = trunc i8 %31 to i1
  %33 = load i32, ptr %9, align 4
  %34 = call i64 @datumGetSize(i64 noundef %30, i1 noundef zeroext %32, i32 noundef %33)
  store i64 %34, ptr %12, align 8
  %35 = load i64, ptr %11, align 8
  %36 = load i64, ptr %12, align 8
  %37 = icmp ne i64 %35, %36
  br i1 %37, label %38, label %39

38:                                               ; preds = %24
  store i1 false, ptr %5, align 1
  store i32 1, ptr %15, align 4
  br label %50

39:                                               ; preds = %24
  %40 = load i64, ptr %6, align 8
  %41 = call ptr @DatumGetPointer(i64 noundef %40)
  store ptr %41, ptr %13, align 8
  %42 = load i64, ptr %7, align 8
  %43 = call ptr @DatumGetPointer(i64 noundef %42)
  store ptr %43, ptr %14, align 8
  %44 = load ptr, ptr %13, align 8
  %45 = load ptr, ptr %14, align 8
  %46 = load i64, ptr %11, align 8
  %47 = call i32 @memcmp(ptr noundef %44, ptr noundef %45, i64 noundef %46) #9
  %48 = icmp eq i32 %47, 0
  %49 = zext i1 %48 to i8
  store i8 %49, ptr %10, align 1
  store i32 0, ptr %15, align 4
  br label %50

50:                                               ; preds = %39, %38
  call void @llvm.lifetime.end.p0(i64 8, ptr %14) #7
  call void @llvm.lifetime.end.p0(i64 8, ptr %13) #7
  call void @llvm.lifetime.end.p0(i64 8, ptr %12) #7
  call void @llvm.lifetime.end.p0(i64 8, ptr %11) #7
  %51 = load i32, ptr %15, align 4
  switch i32 %51, label %56 [
    i32 0, label %52
  ]

52:                                               ; preds = %50
  br label %53

53:                                               ; preds = %52, %19
  %54 = load i8, ptr %10, align 1, !range !4, !noundef !5
  %55 = trunc i8 %54 to i1
  store i1 %55, ptr %5, align 1
  store i32 1, ptr %15, align 4
  br label %56

56:                                               ; preds = %53, %50
  call void @llvm.lifetime.end.p0(i64 1, ptr %10) #7
  %57 = load i1, ptr %5, align 1
  ret i1 %57
}