; Function Attrs: nounwind uwtable
define dso_local zeroext i1 @datumIsEqual(i64 noundef %0, i64 noundef %1, i1 noundef zeroext %2, i32 noundef %3) local_unnamed_addr #0 {
  br i1 %2, label %5, label %7

5:                                                ; preds = %4
  %6 = icmp eq i64 %0, %1
  br label %14

7:                                                ; preds = %4
  %8 = tail call i64 @datumGetSize(i64 noundef %0, i1 noundef zeroext false, i32 noundef %3)
  %9 = tail call i64 @datumGetSize(i64 noundef %1, i1 noundef zeroext false, i32 noundef %3)
  %.not = icmp eq i64 %8, %9
  br i1 %.not, label %10, label %14

10:                                               ; preds = %7
  %11 = inttoptr i64 %0 to ptr
  %12 = inttoptr i64 %1 to ptr
  %bcmp = tail call i32 @bcmp(ptr %11, ptr %12, i64 %8)
  %13 = icmp eq i32 %bcmp, 0
  br label %14

14:                                               ; preds = %10, %7, %5
  %.1 = phi i1 [ %6, %5 ], [ %13, %10 ], [ false, %7 ]
  ret i1 %.1
}